target datalayout = "e-m:e-p270:32:32-p271:32:32-p272:64:64-i64:64-i128:128-f80:128-n8:16:32:64-S128"
target triple = "x86_64-pc-linux-gnu"

%"struct.Luau::TypeLevel" = type { i32, i32 }
%"struct.Luau::FreeTypePack" = type { i32, %"struct.Luau::TypeLevel", ptr }

; Function Attrs: mustprogress uwtable
define dso_local void @_ZN4Luau12FreeTypePackC2EPNS_5ScopeENS_9TypeLevelE(ptr noundef nonnull align 8 dereferenceable(24) %0, ptr noundef %1, i64 %2) unnamed_addr #2 align 2 {
  %4 = alloca %"struct.Luau::TypeLevel", align 4
  %5 = alloca ptr, align 8
  %6 = alloca ptr, align 8
  store i64 %2, ptr %4, align 4
  store ptr %0, ptr %5, align 8, !tbaa !8
  store ptr %1, ptr %6, align 8, !tbaa !17
  %7 = load ptr, ptr %5, align 8
  %8 = getelementptr inbounds nuw %"struct.Luau::FreeTypePack", ptr %7, i32 0, i32 0
  %9 = call noundef i32 @_ZN4Luau9Unifiable10freshIndexEv()
  store i32 %9, ptr %8, align 8, !tbaa !11
  %10 = getelementptr inbounds nuw %"struct.Luau::FreeTypePack", ptr %7, i32 0, i32 1
  call void @llvm.memcpy.p0.p0.i64(ptr align 4 %10, ptr align 4 %4, i64 8, i1 false), !tbaa.struct !15
  %11 = getelementptr inbounds nuw %"struct.Luau::FreeTypePack", ptr %7, i32 0, i32 2
  %12 = load ptr, ptr %6, align 8, !tbaa !17
  store ptr %12, ptr %11, align 8, !tbaa !16
  ret void
}