; Function Attrs: mustprogress uwtable
define dso_local void @_ZN4Luau12FreeTypePackC2EPNS_5ScopeENS_9TypeLevelE(ptr noundef nonnull writeonly align 8 captures(none) dereferenceable(24) initializes((0, 12), (16, 24)) %0, ptr noundef %1, i64 %2) unnamed_addr #2 align 2 {
  %4 = tail call noundef i32 @_ZN4Luau9Unifiable10freshIndexEv()
  store i32 %4, ptr %0, align 8, !tbaa !8
  %5 = getelementptr inbounds nuw i8, ptr %0, i64 4
  store i64 %2, ptr %5, align 4
  %6 = getelementptr inbounds nuw i8, ptr %0, i64 16
  store ptr %1, ptr %6, align 8, !tbaa !13
  ret void
}